target datalayout = "e-m:e-p270:32:32-p271:32:32-p272:64:64-i64:64-i128:128-f80:128-n8:16:32:64-S128"
target triple = "x86_64-pc-linux-gnu"

@aom_once.lock = internal global i32 0, align 4

; Function Attrs: nounwind uwtable
define hidden void @aom_scale_rtcd() #0 {
  call void @aom_once(ptr noundef @setup_rtcd_internal)
  ret void
}

; Function Attrs: nounwind uwtable
define internal void @aom_once(ptr noundef %0) #0 {
  %2 = alloca ptr, align 8
  store ptr %0, ptr %2, align 8
  %3 = load ptr, ptr %2, align 8
  %4 = call i32 @pthread_once(ptr noundef @aom_once.lock, ptr noundef %3)
  ret void
}

; Function Attrs: nounwind uwtable
define internal void @setup_rtcd_internal() #0 {
  ret void
}

declare i32 @pthread_once(ptr noundef, ptr noundef) #1


!llvm.module.flags = !{!0, !1, !2, !3}

!0 = !{i32 1, !"wchar_size", i32 4}
!1 = !{i32 8, !"PIC Level", i32 2}
!2 = !{i32 7, !"uwtable", i32 2}
!3 = !{i32 7, !"frame-pointer", i32 2}
